	.file	"ProgramaPractica2_Main.c"
	.stabs	"/home2/users/alumnes/1227500/Desktop/ACLabs/S2/",100,0,2,.Ltext0
	.stabs	"ProgramaPractica2_Main.c",100,0,2,.Ltext0
	.text
.Ltext0:
	.stabs	"gcc2_compiled.",60,0,0,0
	.stabs	"int:t(0,1)=r(0,1);-2147483648;2147483647;",128,0,0,0
	.stabs	"char:t(0,2)=r(0,2);0;127;",128,0,0,0
	.stabs	"long int:t(0,3)=r(0,3);-2147483648;2147483647;",128,0,0,0
	.stabs	"unsigned int:t(0,4)=r(0,4);0;037777777777;",128,0,0,0
	.stabs	"long unsigned int:t(0,5)=r(0,5);0;037777777777;",128,0,0,0
	.stabs	"__int128:t(0,6)=@s128;r(0,6);02000000000000000000000000000000000000000000;01777777777777777777777777777777777777777777;",128,0,0,0
	.stabs	"__int128 unsigned:t(0,7)=@s128;r(0,7);0;03777777777777777777777777777777777777777777;",128,0,0,0
	.stabs	"long long int:t(0,8)=@s64;r(0,8);01000000000000000000000;00777777777777777777777;",128,0,0,0
	.stabs	"long long unsigned int:t(0,9)=@s64;r(0,9);0;01777777777777777777777;",128,0,0,0
	.stabs	"short int:t(0,10)=@s16;r(0,10);-32768;32767;",128,0,0,0
	.stabs	"short unsigned int:t(0,11)=@s16;r(0,11);0;65535;",128,0,0,0
	.stabs	"signed char:t(0,12)=@s8;r(0,12);-128;127;",128,0,0,0
	.stabs	"unsigned char:t(0,13)=@s8;r(0,13);0;255;",128,0,0,0
	.stabs	"float:t(0,14)=r(0,1);4;0;",128,0,0,0
	.stabs	"double:t(0,15)=r(0,1);8;0;",128,0,0,0
	.stabs	"long double:t(0,16)=r(0,1);12;0;",128,0,0,0
	.stabs	"_Float32:t(0,17)=r(0,1);4;0;",128,0,0,0
	.stabs	"_Float64:t(0,18)=r(0,1);8;0;",128,0,0,0
	.stabs	"_Float128:t(0,19)=r(0,1);16;0;",128,0,0,0
	.stabs	"_Float32x:t(0,20)=r(0,1);8;0;",128,0,0,0
	.stabs	"_Float64x:t(0,21)=r(0,1);12;0;",128,0,0,0
	.stabs	"_Decimal32:t(0,22)=r(0,1);4;0;",128,0,0,0
	.stabs	"_Decimal64:t(0,23)=r(0,1);8;0;",128,0,0,0
	.stabs	"_Decimal128:t(0,24)=r(0,1);16;0;",128,0,0,0
	.stabs	"void:t(0,25)=(0,25)",128,0,0,0
	.stabs	"/usr/include/stdio.h",130,0,0,0
	.stabs	"/usr/lib64/gcc/x86_64-suse-linux/7/include/stddef.h",130,0,0,0
	.stabs	"size_t:t(2,1)=(0,4)",128,0,216,0
	.stabn	162,0,0,0
	.stabs	"/usr/include/bits/types.h",130,0,0,0
	.stabs	"__u_char:t(3,1)=(0,13)",128,0,30,0
	.stabs	"__u_short:t(3,2)=(0,11)",128,0,31,0
	.stabs	"__u_int:t(3,3)=(0,4)",128,0,32,0
	.stabs	"__u_long:t(3,4)=(0,5)",128,0,33,0
	.stabs	"__int8_t:t(3,5)=(0,12)",128,0,36,0
	.stabs	"__uint8_t:t(3,6)=(0,13)",128,0,37,0
	.stabs	"__int16_t:t(3,7)=(0,10)",128,0,38,0
	.stabs	"__uint16_t:t(3,8)=(0,11)",128,0,39,0
	.stabs	"__int32_t:t(3,9)=(0,1)",128,0,40,0
	.stabs	"__uint32_t:t(3,10)=(0,4)",128,0,41,0
	.stabs	"__int64_t:t(3,11)=(0,8)",128,0,46,0
	.stabs	"__uint64_t:t(3,12)=(0,9)",128,0,47,0
	.stabs	"__quad_t:t(3,13)=(0,8)",128,0,55,0
	.stabs	"__u_quad_t:t(3,14)=(0,9)",128,0,56,0
	.stabs	"__intmax_t:t(3,15)=(0,8)",128,0,64,0
	.stabs	"__uintmax_t:t(3,16)=(0,9)",128,0,65,0
	.stabs	"__dev_t:t(3,17)=(3,14)",128,0,133,0
	.stabs	"__uid_t:t(3,18)=(0,4)",128,0,134,0
	.stabs	"__gid_t:t(3,19)=(0,4)",128,0,135,0
	.stabs	"__ino_t:t(3,20)=(0,5)",128,0,136,0
	.stabs	"__ino64_t:t(3,21)=(3,14)",128,0,137,0
	.stabs	"__mode_t:t(3,22)=(0,4)",128,0,138,0
	.stabs	"__nlink_t:t(3,23)=(0,4)",128,0,139,0
	.stabs	"__off_t:t(3,24)=(0,3)",128,0,140,0
	.stabs	"__off64_t:t(3,25)=(3,13)",128,0,141,0
	.stabs	"__pid_t:t(3,26)=(0,1)",128,0,142,0
	.stabs	"__fsid_t:t(3,27)=(3,28)=s8__val:(3,29)=ar(3,30)=r(3,30);0;037777777777;;0;1;(0,1),0,64;;",128,0,143,0
	.stabs	"__clock_t:t(3,31)=(0,3)",128,0,144,0
	.stabs	"__rlim_t:t(3,32)=(0,5)",128,0,145,0
	.stabs	"__rlim64_t:t(3,33)=(3,14)",128,0,146,0
	.stabs	"__id_t:t(3,34)=(0,4)",128,0,147,0
	.stabs	"__time_t:t(3,35)=(0,3)",128,0,148,0
	.stabs	"__useconds_t:t(3,36)=(0,4)",128,0,149,0
	.stabs	"__suseconds_t:t(3,37)=(0,3)",128,0,150,0
	.stabs	"__daddr_t:t(3,38)=(0,1)",128,0,152,0
	.stabs	"__key_t:t(3,39)=(0,1)",128,0,153,0
	.stabs	"__clockid_t:t(3,40)=(0,1)",128,0,156,0
	.stabs	"__timer_t:t(3,41)=(3,42)=*(0,25)",128,0,159,0
	.stabs	"__blksize_t:t(3,43)=(0,3)",128,0,162,0
	.stabs	"__blkcnt_t:t(3,44)=(0,3)",128,0,167,0
	.stabs	"__blkcnt64_t:t(3,45)=(3,13)",128,0,168,0
	.stabs	"__fsblkcnt_t:t(3,46)=(0,5)",128,0,171,0
	.stabs	"__fsblkcnt64_t:t(3,47)=(3,14)",128,0,172,0
	.stabs	"__fsfilcnt_t:t(3,48)=(0,5)",128,0,175,0
	.stabs	"__fsfilcnt64_t:t(3,49)=(3,14)",128,0,176,0
	.stabs	"__fsword_t:t(3,50)=(0,1)",128,0,179,0
	.stabs	"__ssize_t:t(3,51)=(0,1)",128,0,181,0
	.stabs	"__syscall_slong_t:t(3,52)=(0,3)",128,0,184,0
	.stabs	"__syscall_ulong_t:t(3,53)=(0,5)",128,0,186,0
	.stabs	"__loff_t:t(3,54)=(3,25)",128,0,190,0
	.stabs	"__qaddr_t:t(3,55)=(3,56)=*(3,13)",128,0,191,0
	.stabs	"__caddr_t:t(3,57)=(3,58)=*(0,2)",128,0,192,0
	.stabs	"__intptr_t:t(3,59)=(0,1)",128,0,195,0
	.stabs	"__socklen_t:t(3,60)=(0,4)",128,0,198,0
	.stabs	"__sig_atomic_t:t(3,61)=(0,1)",128,0,203,0
	.stabn	162,0,0,0
	.stabs	"/usr/include/bits/types/__FILE.h",130,0,0,0
	.stabs	"__FILE:t(4,1)=(4,2)=xs_IO_FILE:",128,0,5,0
	.stabn	162,0,0,0
	.stabs	"/usr/include/bits/types/FILE.h",130,0,0,0
	.stabs	"FILE:t(5,1)=(4,2)",128,0,7,0
	.stabn	162,0,0,0
	.stabs	"/usr/include/libio.h",130,0,0,0
	.stabs	"/usr/include/_G_config.h",130,0,0,0
	.stabs	"/usr/include/bits/types/__mbstate_t.h",130,0,0,0
	.stabs	"__mbstate_t:t(8,1)=(8,2)=s8__count:(0,1),0,32;__value:(8,3)=u4__wch:(0,4),0,32;__wchb:(8,4)=ar(3,30);0;3;(0,2),0,32;;,32,32;;",128,0,21,0
	.stabn	162,0,0,0
	.stabs	"_G_fpos_t:t(7,1)=(7,2)=s12__pos:(3,24),0,32;__state:(8,1),32,64;;",128,0,26,0
	.stabs	"_G_fpos64_t:t(7,3)=(7,4)=s16__pos:(3,25),0,64;__state:(8,1),64,64;;",128,0,31,0
	.stabn	162,0,0,0
	.stabs	"/usr/lib64/gcc/x86_64-suse-linux/7/include/stdarg.h",130,0,0,0
	.stabs	"__gnuc_va_list:t(9,1)=(9,2)=*(0,2)",128,0,40,0
	.stabn	162,0,0,0
	.stabs	"_IO_lock_t:t(6,1)=(0,25)",128,0,150,0
	.stabs	"_IO_marker:T(6,2)=s12_next:(6,3)=*(6,2),0,32;_sbuf:(6,4)=*(4,2),32,32;_pos:(0,1),64,32;;",128,0,0,0
	.stabs	"__codecvt_result:T(6,5)=e__codecvt_ok:0,__codecvt_partial:1,__codecvt_error:2,__codecvt_noconv:3,;",128,0,0,0
	.stabs	"_IO_FILE:T(4,2)=s148_flags:(0,1),0,32;_IO_read_ptr:(3,58),32,32;_IO_read_end:(3,58),64,32;_IO_read_base:(3,58),96,32;_IO_write_base:(3,58),128,32;_IO_write_ptr:(3,58),160,32;_IO_write_end:(3,58),192,32;_IO_buf_base:(3,58),224,32;_IO_buf_end:(3,58),256,32;_IO_save_base:(3,58),288,32;_IO_backup_base:(3,58),320,32;_IO_save_end:(3,58),352,32;_markers:(6,3),384,32;_chain:(6,4),416,32;_fileno:(0,1),448,32;_flags2:(0,1),480,32;_old_offset:(3,24),512,32;_cur_column:(0,11),544,16;_vtable_offset:(0,12),560,8;_shortbuf:(6,6)=ar(3,30);0;0;(0,2),568,8;_lock:(6,7)=*(6,1),576,32;_offset:(3,25),608,64;__pad1:(3,42),672,32;__pad2:(3,42),704,32;__pad3:(3,42),736,32;__pad4:(3,42),768,32;__pad5:(2,1),800,32;_mode:(0,1),832,32;_unused2:(6,8)=ar(3,30);0;39;(0,2),864,320;;",128,0,0,0
	.stabs	"_IO_FILE:t(6,9)=(4,2)",128,0,310,0
	.stabs	"__io_read_fn:t(6,10)=(6,11)=f(3,51)",128,0,333,0
	.stabs	"__io_write_fn:t(6,12)=(6,13)=f(3,51)",128,0,341,0
	.stabs	"__io_seek_fn:t(6,14)=(6,15)=f(0,1)",128,0,350,0
	.stabs	"__io_close_fn:t(6,16)=(6,17)=f(0,1)",128,0,353,0
	.stabn	162,0,0,0
	.stabs	"va_list:t(1,1)=(9,1)",128,0,46,0
	.stabs	"off_t:t(1,2)=(3,24)",128,0,57,0
	.stabs	"ssize_t:t(1,3)=(3,51)",128,0,71,0
	.stabs	"fpos_t:t(1,4)=(7,1)",128,0,78,0
	.stabn	162,0,0,0
	.stabs	"carta:t(0,26)=(0,27)=s8num:(0,1),0,32;palo:(0,1),32,32;;",128,0,12,0
	.globl	trad
	.data
	.align 4
	.type	trad, @object
	.size	trad, 13
trad:
	.byte	50
	.byte	51
	.byte	52
	.byte	53
	.byte	54
	.byte	55
	.byte	56
	.byte	57
	.byte	49
	.byte	74
	.byte	81
	.byte	75
	.byte	65
	.stabs	"trad:G(0,28)=ar(3,30);0;12;(0,2)",32,0,14,0
	.comm	baraja,416,32
	.stabs	"baraja:G(0,29)=ar(3,30);0;51;(0,26)",32,0,15,0
	.globl	pareja
	.bss
	.align 4
	.type	pareja, @object
	.size	pareja, 4
pareja:
	.zero	4
	.stabs	"pareja:G(0,1)",32,0,16,0
	.globl	trio
	.align 4
	.type	trio, @object
	.size	trio, 4
trio:
	.zero	4
	.stabs	"trio:G(0,1)",32,0,17,0
	.globl	poker
	.align 4
	.type	poker, @object
	.size	poker, 4
poker:
	.zero	4
	.stabs	"poker:G(0,1)",32,0,18,0
	.globl	full
	.align 4
	.type	full, @object
	.size	full, 4
full:
	.zero	4
	.stabs	"full:G(0,1)",32,0,19,0
	.globl	color
	.align 4
	.type	color, @object
	.size	color, 4
color:
	.zero	4
	.stabs	"color:G(0,1)",32,0,20,0
	.globl	nada
	.align 4
	.type	nada, @object
	.size	nada, 4
nada:
	.zero	4
	.stabs	"nada:G(0,1)",32,0,21,0
	.globl	doblepareja
	.align 4
	.type	doblepareja, @object
	.size	doblepareja, 4
doblepareja:
	.zero	4
	.stabs	"doblepareja:G(0,1)",32,0,22,0
	.globl	escalera
	.align 4
	.type	escalera, @object
	.size	escalera, 4
escalera:
	.zero	4
	.stabs	"escalera:G(0,1)",32,0,23,0
	.globl	escaleracolor
	.align 4
	.type	escaleracolor, @object
	.size	escaleracolor, 4
escaleracolor:
	.zero	4
	.stabs	"escaleracolor:G(0,1)",32,0,24,0
	.globl	V
	.align 4
	.type	V, @object
	.size	V, 4
V:
	.zero	4
	.stabs	"V:G(0,1)",32,0,25,0
	.text
	.stabs	"Init:F(0,25)",36,0,28,Init
	.stabs	"baraja:p(0,30)=*(0,26)",160,0,28,8
	.globl	Init
	.type	Init, @function
Init:
	.stabd	46,0,0
	.stabn	68,0,29,.LM0-.LFBB1
.LM0:
.LFBB1:
.LFB0:
	.cfi_startproc
	pushl	%ebp
	.cfi_def_cfa_offset 8
	.cfi_offset 5, -8
	movl	%esp, %ebp
	.cfi_def_cfa_register 5
	subl	$16, %esp
	.stabn	68,0,31,.LM1-.LFBB1
.LM1:
	movl	$0, -4(%ebp)
	jmp	.L2
.L3:
	.stabn	68,0,32,.LM2-.LFBB1
.LM2:
	movl	-4(%ebp), %eax
	leal	0(,%eax,8), %edx
	movl	8(%ebp), %eax
	addl	%eax, %edx
	movl	-4(%ebp), %eax
	movl	%eax, (%edx)
	.stabn	68,0,33,.LM3-.LFBB1
.LM3:
	movl	-4(%ebp), %eax
	leal	0(,%eax,8), %edx
	movl	8(%ebp), %eax
	addl	%edx, %eax
	movl	$0, 4(%eax)
	.stabn	68,0,34,.LM4-.LFBB1
.LM4:
	movl	-4(%ebp), %eax
	addl	$13, %eax
	leal	0(,%eax,8), %edx
	movl	8(%ebp), %eax
	addl	%eax, %edx
	movl	-4(%ebp), %eax
	movl	%eax, (%edx)
	.stabn	68,0,35,.LM5-.LFBB1
.LM5:
	movl	-4(%ebp), %eax
	addl	$13, %eax
	leal	0(,%eax,8), %edx
	movl	8(%ebp), %eax
	addl	%edx, %eax
	movl	$1, 4(%eax)
	.stabn	68,0,36,.LM6-.LFBB1
.LM6:
	movl	-4(%ebp), %eax
	addl	$26, %eax
	leal	0(,%eax,8), %edx
	movl	8(%ebp), %eax
	addl	%eax, %edx
	movl	-4(%ebp), %eax
	movl	%eax, (%edx)
	.stabn	68,0,37,.LM7-.LFBB1
.LM7:
	movl	-4(%ebp), %eax
	addl	$26, %eax
	leal	0(,%eax,8), %edx
	movl	8(%ebp), %eax
	addl	%edx, %eax
	movl	$2, 4(%eax)
	.stabn	68,0,38,.LM8-.LFBB1
.LM8:
	movl	-4(%ebp), %eax
	addl	$39, %eax
	leal	0(,%eax,8), %edx
	movl	8(%ebp), %eax
	addl	%eax, %edx
	movl	-4(%ebp), %eax
	movl	%eax, (%edx)
	.stabn	68,0,39,.LM9-.LFBB1
.LM9:
	movl	-4(%ebp), %eax
	addl	$39, %eax
	leal	0(,%eax,8), %edx
	movl	8(%ebp), %eax
	addl	%edx, %eax
	movl	$3, 4(%eax)
	.stabn	68,0,31,.LM10-.LFBB1
.LM10:
	addl	$1, -4(%ebp)
.L2:
	.stabn	68,0,31,.LM11-.LFBB1
.LM11:
	cmpl	$12, -4(%ebp)
	jle	.L3
	.stabn	68,0,41,.LM12-.LFBB1
.LM12:
	nop
	leave
	.cfi_restore 5
	.cfi_def_cfa 4, 4
	ret
	.cfi_endproc
.LFE0:
	.size	Init, .-Init
	.stabs	"i:(0,1)",128,0,29,-4
	.stabn	192,0,0,.LFBB1-.LFBB1
	.stabn	224,0,0,.Lscope1-.LFBB1
.Lscope1:
	.stabs	"",36,0,0,.Lscope1-.LFBB1
	.stabd	78,0,0
	.stabs	"Ordenar:F(0,25)",36,0,43,Ordenar
	.stabs	"mano:p(0,30)",160,0,43,8
	.globl	Ordenar
	.type	Ordenar, @function
Ordenar:
	.stabd	46,0,0
	.stabn	68,0,44,.LM13-.LFBB2
.LM13:
.LFBB2:
.LFB1:
	.cfi_startproc
	pushl	%ebp
	.cfi_def_cfa_offset 8
	.cfi_offset 5, -8
	movl	%esp, %ebp
	.cfi_def_cfa_register 5
	subl	$16, %esp
	.stabn	68,0,46,.LM14-.LFBB2
.LM14:
	movl	$0, -4(%ebp)
	jmp	.L5
.L9:
	.stabn	68,0,47,.LM15-.LFBB2
.LM15:
	movl	-4(%ebp), %eax
	addl	$1, %eax
	movl	%eax, -8(%ebp)
	jmp	.L6
.L8:
	.stabn	68,0,48,.LM16-.LFBB2
.LM16:
	movl	-4(%ebp), %eax
	leal	0(,%eax,8), %edx
	movl	8(%ebp), %eax
	addl	%edx, %eax
	movl	(%eax), %edx
	movl	-8(%ebp), %eax
	leal	0(,%eax,8), %ecx
	movl	8(%ebp), %eax
	addl	%ecx, %eax
	movl	(%eax), %eax
	cmpl	%eax, %edx
	jle	.L7
	.stabn	68,0,49,.LM17-.LFBB2
.LM17:
	movl	-4(%ebp), %eax
	leal	0(,%eax,8), %edx
	movl	8(%ebp), %eax
	addl	%edx, %eax
	movl	(%eax), %eax
	movl	%eax, -12(%ebp)
	.stabn	68,0,50,.LM18-.LFBB2
.LM18:
	movl	-8(%ebp), %eax
	leal	0(,%eax,8), %edx
	movl	8(%ebp), %eax
	addl	%edx, %eax
	movl	-4(%ebp), %edx
	leal	0(,%edx,8), %ecx
	movl	8(%ebp), %edx
	addl	%ecx, %edx
	movl	(%eax), %eax
	movl	%eax, (%edx)
	.stabn	68,0,51,.LM19-.LFBB2
.LM19:
	movl	-8(%ebp), %eax
	leal	0(,%eax,8), %edx
	movl	8(%ebp), %eax
	addl	%eax, %edx
	movl	-12(%ebp), %eax
	movl	%eax, (%edx)
	.stabn	68,0,52,.LM20-.LFBB2
.LM20:
	movl	-4(%ebp), %eax
	leal	0(,%eax,8), %edx
	movl	8(%ebp), %eax
	addl	%edx, %eax
	movl	4(%eax), %eax
	movl	%eax, -12(%ebp)
	.stabn	68,0,53,.LM21-.LFBB2
.LM21:
	movl	-8(%ebp), %eax
	leal	0(,%eax,8), %edx
	movl	8(%ebp), %eax
	addl	%edx, %eax
	movl	-4(%ebp), %edx
	leal	0(,%edx,8), %ecx
	movl	8(%ebp), %edx
	addl	%ecx, %edx
	movl	4(%eax), %eax
	movl	%eax, 4(%edx)
	.stabn	68,0,54,.LM22-.LFBB2
.LM22:
	movl	-8(%ebp), %eax
	leal	0(,%eax,8), %edx
	movl	8(%ebp), %eax
	addl	%eax, %edx
	movl	-12(%ebp), %eax
	movl	%eax, 4(%edx)
.L7:
	.stabn	68,0,47,.LM23-.LFBB2
.LM23:
	addl	$1, -8(%ebp)
.L6:
	.stabn	68,0,47,.LM24-.LFBB2
.LM24:
	cmpl	$4, -8(%ebp)
	jle	.L8
	.stabn	68,0,46,.LM25-.LFBB2
.LM25:
	addl	$1, -4(%ebp)
.L5:
	.stabn	68,0,46,.LM26-.LFBB2
.LM26:
	cmpl	$4, -4(%ebp)
	jle	.L9
	.stabn	68,0,56,.LM27-.LFBB2
.LM27:
	nop
	leave
	.cfi_restore 5
	.cfi_def_cfa 4, 4
	ret
	.cfi_endproc
.LFE1:
	.size	Ordenar, .-Ordenar
	.stabs	"i:(0,1)",128,0,44,-4
	.stabs	"j:(0,1)",128,0,44,-8
	.stabs	"tmp:(0,1)",128,0,44,-12
	.stabn	192,0,0,.LFBB2-.LFBB2
	.stabn	224,0,0,.Lscope2-.LFBB2
.Lscope2:
	.stabs	"",36,0,0,.Lscope2-.LFBB2
	.stabd	78,0,0
	.section	.rodata
.LC0:
	.string	"10 - "
.LC1:
	.string	" %c - "
.LC2:
	.string	"COR"
.LC3:
	.string	"PIC"
.LC4:
	.string	"TRE"
.LC5:
	.string	"DIA"
	.text
	.stabs	"Mostrar:F(0,25)",36,0,58,Mostrar
	.stabs	"mano:p(0,30)",160,0,58,8
	.globl	Mostrar
	.type	Mostrar, @function
Mostrar:
	.stabd	46,0,0
	.stabn	68,0,59,.LM28-.LFBB3
.LM28:
.LFBB3:
.LFB2:
	.cfi_startproc
	pushl	%ebp
	.cfi_def_cfa_offset 8
	.cfi_offset 5, -8
	movl	%esp, %ebp
	.cfi_def_cfa_register 5
	subl	$24, %esp
	.stabn	68,0,61,.LM29-.LFBB3
.LM29:
	subl	$12, %esp
	pushl	$10
	call	putchar
	addl	$16, %esp
	.stabn	68,0,62,.LM30-.LFBB3
.LM30:
	movl	$0, -12(%ebp)
	jmp	.L11
.L20:
	.stabn	68,0,63,.LM31-.LFBB3
.LM31:
	movl	-12(%ebp), %eax
	leal	0(,%eax,8), %edx
	movl	8(%ebp), %eax
	addl	%edx, %eax
	movl	(%eax), %eax
	movl	%eax, -16(%ebp)
	.stabn	68,0,64,.LM32-.LFBB3
.LM32:
	movl	-12(%ebp), %eax
	leal	0(,%eax,8), %edx
	movl	8(%ebp), %eax
	addl	%edx, %eax
	movl	4(%eax), %eax
	movl	%eax, -20(%ebp)
	.stabn	68,0,65,.LM33-.LFBB3
.LM33:
	movl	-16(%ebp), %eax
	addl	$trad, %eax
	movzbl	(%eax), %eax
	cmpb	$49, %al
	jne	.L12
	.stabn	68,0,65,.LM34-.LFBB3
.LM34:
	subl	$12, %esp
	pushl	$.LC0
	call	printf
	addl	$16, %esp
	jmp	.L13
.L12:
	.stabn	68,0,66,.LM35-.LFBB3
.LM35:
	movl	-16(%ebp), %eax
	addl	$trad, %eax
	movzbl	(%eax), %eax
	movsbl	%al, %eax
	subl	$8, %esp
	pushl	%eax
	pushl	$.LC1
	call	printf
	addl	$16, %esp
.L13:
	.stabn	68,0,67,.LM36-.LFBB3
.LM36:
	movl	-20(%ebp), %eax
	cmpl	$1, %eax
	je	.L15
	cmpl	$1, %eax
	jg	.L16
	testl	%eax, %eax
	je	.L17
	jmp	.L14
.L16:
	cmpl	$2, %eax
	je	.L18
	cmpl	$3, %eax
	je	.L19
	jmp	.L14
.L17:
	.stabn	68,0,68,.LM37-.LFBB3
.LM37:
	subl	$12, %esp
	pushl	$.LC2
	call	puts
	addl	$16, %esp
	jmp	.L14
.L15:
	.stabn	68,0,69,.LM38-.LFBB3
.LM38:
	subl	$12, %esp
	pushl	$.LC3
	call	puts
	addl	$16, %esp
	jmp	.L14
.L19:
	.stabn	68,0,70,.LM39-.LFBB3
.LM39:
	subl	$12, %esp
	pushl	$.LC4
	call	puts
	addl	$16, %esp
	jmp	.L14
.L18:
	.stabn	68,0,71,.LM40-.LFBB3
.LM40:
	subl	$12, %esp
	pushl	$.LC5
	call	puts
	addl	$16, %esp
	nop
.L14:
	.stabn	68,0,62,.LM41-.LFBB3
.LM41:
	addl	$1, -12(%ebp)
.L11:
	.stabn	68,0,62,.LM42-.LFBB3
.LM42:
	cmpl	$4, -12(%ebp)
	jle	.L20
	.stabn	68,0,75,.LM43-.LFBB3
.LM43:
	subl	$12, %esp
	pushl	$10
	call	putchar
	addl	$16, %esp
	.stabn	68,0,76,.LM44-.LFBB3
.LM44:
	nop
	leave
	.cfi_restore 5
	.cfi_def_cfa 4, 4
	ret
	.cfi_endproc
.LFE2:
	.size	Mostrar, .-Mostrar
	.stabs	"i:(0,1)",128,0,59,-12
	.stabs	"num:(0,1)",128,0,59,-16
	.stabs	"palo:(0,1)",128,0,59,-20
	.stabn	192,0,0,.LFBB3-.LFBB3
	.stabn	224,0,0,.Lscope3-.LFBB3
.Lscope3:
	.stabs	"",36,0,0,.Lscope3-.LFBB3
	.stabd	78,0,0
	.section	.rodata
.LC6:
	.string	"%s"
	.text
	.stabs	"verbose:F(0,1)",36,0,78,verbose
	.stabs	"c:p(3,58)",160,0,78,8
	.globl	verbose
	.type	verbose, @function
verbose:
	.stabd	46,0,0
	.stabn	68,0,78,.LM45-.LFBB4
.LM45:
.LFBB4:
.LFB3:
	.cfi_startproc
	pushl	%ebp
	.cfi_def_cfa_offset 8
	.cfi_offset 5, -8
	movl	%esp, %ebp
	.cfi_def_cfa_register 5
	subl	$8, %esp
	.stabn	68,0,80,.LM46-.LFBB4
.LM46:
	movl	V, %eax
	testl	%eax, %eax
	je	.L22
	.stabn	68,0,80,.LM47-.LFBB4
.LM47:
	subl	$8, %esp
	pushl	8(%ebp)
	pushl	$.LC6
	call	printf
	addl	$16, %esp
.L22:
	.stabn	68,0,81,.LM48-.LFBB4
.LM48:
	nop
	leave
	.cfi_restore 5
	.cfi_def_cfa 4, 4
	ret
	.cfi_endproc
.LFE3:
	.size	verbose, .-verbose
.Lscope4:
	.stabs	"",36,0,0,.Lscope4-.LFBB4
	.stabd	78,0,0
	.stabs	"Color:F(0,1)",36,0,83,Color
	.stabs	"mano:p(0,30)",160,0,83,8
	.globl	Color
	.type	Color, @function
Color:
	.stabd	46,0,0
	.stabn	68,0,84,.LM49-.LFBB5
.LM49:
.LFBB5:
.LFB4:
	.cfi_startproc
	pushl	%ebp
	.cfi_def_cfa_offset 8
	.cfi_offset 5, -8
	movl	%esp, %ebp
	.cfi_def_cfa_register 5
	.stabn	68,0,85,.LM50-.LFBB5
.LM50:
	movl	8(%ebp), %eax
	movl	4(%eax), %edx
	movl	8(%ebp), %eax
	addl	$8, %eax
	movl	4(%eax), %eax
	cmpl	%eax, %edx
	jne	.L24
	.stabn	68,0,85,.LM51-.LFBB5
.LM51:
	movl	8(%ebp), %eax
	movl	4(%eax), %edx
	movl	8(%ebp), %eax
	addl	$16, %eax
	movl	4(%eax), %eax
	cmpl	%eax, %edx
	jne	.L24
	.stabn	68,0,85,.LM52-.LFBB5
.LM52:
	movl	8(%ebp), %eax
	movl	4(%eax), %edx
	movl	8(%ebp), %eax
	addl	$24, %eax
	movl	4(%eax), %eax
	cmpl	%eax, %edx
	jne	.L24
	.stabn	68,0,85,.LM53-.LFBB5
.LM53:
	movl	8(%ebp), %eax
	movl	4(%eax), %edx
	movl	8(%ebp), %eax
	addl	$32, %eax
	movl	4(%eax), %eax
	cmpl	%eax, %edx
	jne	.L24
	.stabn	68,0,85,.LM54-.LFBB5
.LM54:
	movl	$1, %eax
	jmp	.L26
.L24:
	.stabn	68,0,85,.LM55-.LFBB5
.LM55:
	movl	$0, %eax
.L26:
	.stabn	68,0,86,.LM56-.LFBB5
.LM56:
	popl	%ebp
	.cfi_restore 5
	.cfi_def_cfa 4, 4
	ret
	.cfi_endproc
.LFE4:
	.size	Color, .-Color
.Lscope5:
	.stabs	"",36,0,0,.Lscope5-.LFBB5
	.stabd	78,0,0
	.stabs	"Poker:F(0,1)",36,0,88,Poker
	.stabs	"mano:p(0,30)",160,0,88,8
	.globl	Poker
	.type	Poker, @function
Poker:
	.stabd	46,0,0
	.stabn	68,0,89,.LM57-.LFBB6
.LM57:
.LFBB6:
.LFB5:
	.cfi_startproc
	pushl	%ebp
	.cfi_def_cfa_offset 8
	.cfi_offset 5, -8
	movl	%esp, %ebp
	.cfi_def_cfa_register 5
	subl	$16, %esp
	.stabn	68,0,91,.LM58-.LFBB6
.LM58:
	movl	8(%ebp), %eax
	movl	(%eax), %edx
	movl	8(%ebp), %eax
	addl	$8, %eax
	movl	(%eax), %eax
	cmpl	%eax, %edx
	jne	.L28
	.stabn	68,0,91,.LM59-.LFBB6
.LM59:
	movl	8(%ebp), %eax
	movl	(%eax), %edx
	movl	8(%ebp), %eax
	addl	$16, %eax
	movl	(%eax), %eax
	cmpl	%eax, %edx
	jne	.L28
	.stabn	68,0,91,.LM60-.LFBB6
.LM60:
	movl	8(%ebp), %eax
	movl	(%eax), %edx
	movl	8(%ebp), %eax
	addl	$24, %eax
	movl	(%eax), %eax
	cmpl	%eax, %edx
	jne	.L28
	.stabn	68,0,91,.LM61-.LFBB6
.LM61:
	movl	$1, %eax
	jmp	.L29
.L28:
	.stabn	68,0,91,.LM62-.LFBB6
.LM62:
	movl	$0, %eax
.L29:
	.stabn	68,0,91,.LM63-.LFBB6
.LM63:
	movl	%eax, -4(%ebp)
	.stabn	68,0,92,.LM64-.LFBB6
.LM64:
	movl	8(%ebp), %eax
	addl	$8, %eax
	movl	(%eax), %edx
	movl	8(%ebp), %eax
	addl	$16, %eax
	movl	(%eax), %eax
	cmpl	%eax, %edx
	jne	.L30
	.stabn	68,0,92,.LM65-.LFBB6
.LM65:
	movl	8(%ebp), %eax
	addl	$8, %eax
	movl	(%eax), %edx
	movl	8(%ebp), %eax
	addl	$24, %eax
	movl	(%eax), %eax
	cmpl	%eax, %edx
	jne	.L30
	.stabn	68,0,92,.LM66-.LFBB6
.LM66:
	movl	8(%ebp), %eax
	addl	$8, %eax
	movl	(%eax), %edx
	movl	8(%ebp), %eax
	addl	$32, %eax
	movl	(%eax), %eax
	cmpl	%eax, %edx
	jne	.L30
	.stabn	68,0,92,.LM67-.LFBB6
.LM67:
	movl	$1, %eax
	jmp	.L31
.L30:
	.stabn	68,0,92,.LM68-.LFBB6
.LM68:
	movl	$0, %eax
.L31:
	.stabn	68,0,92,.LM69-.LFBB6
.LM69:
	movl	%eax, -8(%ebp)
	.stabn	68,0,94,.LM70-.LFBB6
.LM70:
	cmpl	$0, -4(%ebp)
	jne	.L32
	.stabn	68,0,94,.LM71-.LFBB6
.LM71:
	cmpl	$0, -8(%ebp)
	je	.L33
.L32:
	.stabn	68,0,94,.LM72-.LFBB6
.LM72:
	movl	$1, %eax
	jmp	.L35
.L33:
	.stabn	68,0,94,.LM73-.LFBB6
.LM73:
	movl	$0, %eax
.L35:
	.stabn	68,0,95,.LM74-.LFBB6
.LM74:
	leave
	.cfi_restore 5
	.cfi_def_cfa 4, 4
	ret
	.cfi_endproc
.LFE5:
	.size	Poker, .-Poker
	.stabs	"caso1:(0,1)",128,0,89,-4
	.stabs	"caso2:(0,1)",128,0,89,-8
	.stabn	192,0,0,.LFBB6-.LFBB6
	.stabn	224,0,0,.Lscope6-.LFBB6
.Lscope6:
	.stabs	"",36,0,0,.Lscope6-.LFBB6
	.stabd	78,0,0
	.stabs	"Full:F(0,1)",36,0,97,Full
	.stabs	"mano:p(0,30)",160,0,97,8
	.globl	Full
	.type	Full, @function
Full:
	.stabd	46,0,0
	.stabn	68,0,98,.LM75-.LFBB7
.LM75:
.LFBB7:
.LFB6:
	.cfi_startproc
	pushl	%ebp
	.cfi_def_cfa_offset 8
	.cfi_offset 5, -8
	movl	%esp, %ebp
	.cfi_def_cfa_register 5
	subl	$16, %esp
	.stabn	68,0,100,.LM76-.LFBB7
.LM76:
	movl	8(%ebp), %eax
	movl	(%eax), %edx
	movl	8(%ebp), %eax
	addl	$8, %eax
	movl	(%eax), %eax
	cmpl	%eax, %edx
	jne	.L37
	.stabn	68,0,100,.LM77-.LFBB7
.LM77:
	movl	8(%ebp), %eax
	movl	(%eax), %edx
	movl	8(%ebp), %eax
	addl	$16, %eax
	movl	(%eax), %eax
	cmpl	%eax, %edx
	jne	.L37
	.stabn	68,0,100,.LM78-.LFBB7
.LM78:
	movl	8(%ebp), %eax
	addl	$24, %eax
	movl	(%eax), %edx
	movl	8(%ebp), %eax
	addl	$32, %eax
	movl	(%eax), %eax
	cmpl	%eax, %edx
	jne	.L37
	.stabn	68,0,100,.LM79-.LFBB7
.LM79:
	movl	$1, %eax
	jmp	.L38
.L37:
	.stabn	68,0,100,.LM80-.LFBB7
.LM80:
	movl	$0, %eax
.L38:
	.stabn	68,0,100,.LM81-.LFBB7
.LM81:
	movl	%eax, -4(%ebp)
	.stabn	68,0,101,.LM82-.LFBB7
.LM82:
	movl	8(%ebp), %eax
	movl	(%eax), %edx
	movl	8(%ebp), %eax
	addl	$8, %eax
	movl	(%eax), %eax
	cmpl	%eax, %edx
	jne	.L39
	.stabn	68,0,101,.LM83-.LFBB7
.LM83:
	movl	8(%ebp), %eax
	addl	$16, %eax
	movl	(%eax), %edx
	movl	8(%ebp), %eax
	addl	$24, %eax
	movl	(%eax), %eax
	cmpl	%eax, %edx
	jne	.L39
	.stabn	68,0,101,.LM84-.LFBB7
.LM84:
	movl	8(%ebp), %eax
	addl	$16, %eax
	movl	(%eax), %edx
	movl	8(%ebp), %eax
	addl	$32, %eax
	movl	(%eax), %eax
	cmpl	%eax, %edx
	jne	.L39
	.stabn	68,0,101,.LM85-.LFBB7
.LM85:
	movl	$1, %eax
	jmp	.L40
.L39:
	.stabn	68,0,101,.LM86-.LFBB7
.LM86:
	movl	$0, %eax
.L40:
	.stabn	68,0,101,.LM87-.LFBB7
.LM87:
	movl	%eax, -8(%ebp)
	.stabn	68,0,103,.LM88-.LFBB7
.LM88:
	cmpl	$0, -4(%ebp)
	jne	.L41
	.stabn	68,0,103,.LM89-.LFBB7
.LM89:
	cmpl	$0, -8(%ebp)
	je	.L42
.L41:
	.stabn	68,0,103,.LM90-.LFBB7
.LM90:
	movl	$1, %eax
	jmp	.L44
.L42:
	.stabn	68,0,103,.LM91-.LFBB7
.LM91:
	movl	$0, %eax
.L44:
	.stabn	68,0,104,.LM92-.LFBB7
.LM92:
	leave
	.cfi_restore 5
	.cfi_def_cfa 4, 4
	ret
	.cfi_endproc
.LFE6:
	.size	Full, .-Full
	.stabs	"caso1:(0,1)",128,0,98,-4
	.stabs	"caso2:(0,1)",128,0,98,-8
	.stabn	192,0,0,.LFBB7-.LFBB7
	.stabn	224,0,0,.Lscope7-.LFBB7
.Lscope7:
	.stabs	"",36,0,0,.Lscope7-.LFBB7
	.stabd	78,0,0
	.stabs	"Escalera:F(0,1)",36,0,106,Escalera
	.stabs	"mano:p(0,30)",160,0,106,8
	.globl	Escalera
	.type	Escalera, @function
Escalera:
	.stabd	46,0,0
	.stabn	68,0,107,.LM93-.LFBB8
.LM93:
.LFBB8:
.LFB7:
	.cfi_startproc
	pushl	%ebp
	.cfi_def_cfa_offset 8
	.cfi_offset 5, -8
	movl	%esp, %ebp
	.cfi_def_cfa_register 5
	subl	$16, %esp
	.stabn	68,0,109,.LM94-.LFBB8
.LM94:
	movl	8(%ebp), %eax
	movl	(%eax), %eax
	movl	8(%ebp), %edx
	addl	$8, %edx
	movl	(%edx), %edx
	subl	$1, %edx
	cmpl	%edx, %eax
	jne	.L46
	.stabn	68,0,109,.LM95-.LFBB8
.LM95:
	movl	8(%ebp), %eax
	movl	(%eax), %eax
	movl	8(%ebp), %edx
	addl	$16, %edx
	movl	(%edx), %edx
	subl	$2, %edx
	cmpl	%edx, %eax
	jne	.L46
	.stabn	68,0,109,.LM96-.LFBB8
.LM96:
	movl	8(%ebp), %eax
	movl	(%eax), %eax
	movl	8(%ebp), %edx
	addl	$24, %edx
	movl	(%edx), %edx
	subl	$3, %edx
	cmpl	%edx, %eax
	jne	.L46
	.stabn	68,0,109,.LM97-.LFBB8
.LM97:
	movl	8(%ebp), %eax
	movl	(%eax), %eax
	movl	8(%ebp), %edx
	addl	$32, %edx
	movl	(%edx), %edx
	subl	$4, %edx
	cmpl	%edx, %eax
	jne	.L46
	.stabn	68,0,109,.LM98-.LFBB8
.LM98:
	movl	$1, %eax
	jmp	.L47
.L46:
	.stabn	68,0,109,.LM99-.LFBB8
.LM99:
	movl	$0, %eax
.L47:
	.stabn	68,0,109,.LM100-.LFBB8
.LM100:
	movl	%eax, -4(%ebp)
	.stabn	68,0,110,.LM101-.LFBB8
.LM101:
	movl	8(%ebp), %eax
	movl	(%eax), %eax
	testl	%eax, %eax
	jne	.L48
	.stabn	68,0,110,.LM102-.LFBB8
.LM102:
	movl	8(%ebp), %eax
	addl	$8, %eax
	movl	(%eax), %eax
	cmpl	$1, %eax
	jne	.L48
	.stabn	68,0,110,.LM103-.LFBB8
.LM103:
	movl	8(%ebp), %eax
	addl	$16, %eax
	movl	(%eax), %eax
	cmpl	$2, %eax
	jne	.L48
	.stabn	68,0,110,.LM104-.LFBB8
.LM104:
	movl	8(%ebp), %eax
	addl	$24, %eax
	movl	(%eax), %eax
	cmpl	$3, %eax
	jne	.L48
	.stabn	68,0,110,.LM105-.LFBB8
.LM105:
	movl	8(%ebp), %eax
	addl	$32, %eax
	movl	(%eax), %eax
	cmpl	$12, %eax
	jne	.L48
	.stabn	68,0,110,.LM106-.LFBB8
.LM106:
	movl	$1, %eax
	jmp	.L49
.L48:
	.stabn	68,0,110,.LM107-.LFBB8
.LM107:
	movl	$0, %eax
.L49:
	.stabn	68,0,110,.LM108-.LFBB8
.LM108:
	movl	%eax, -8(%ebp)
	.stabn	68,0,112,.LM109-.LFBB8
.LM109:
	cmpl	$0, -4(%ebp)
	jne	.L50
	.stabn	68,0,112,.LM110-.LFBB8
.LM110:
	cmpl	$0, -8(%ebp)
	je	.L51
.L50:
	.stabn	68,0,112,.LM111-.LFBB8
.LM111:
	movl	$1, %eax
	jmp	.L53
.L51:
	.stabn	68,0,112,.LM112-.LFBB8
.LM112:
	movl	$0, %eax
.L53:
	.stabn	68,0,114,.LM113-.LFBB8
.LM113:
	leave
	.cfi_restore 5
	.cfi_def_cfa 4, 4
	ret
	.cfi_endproc
.LFE7:
	.size	Escalera, .-Escalera
	.stabs	"caso1:(0,1)",128,0,107,-4
	.stabs	"caso2:(0,1)",128,0,107,-8
	.stabn	192,0,0,.LFBB8-.LFBB8
	.stabn	224,0,0,.Lscope8-.LFBB8
.Lscope8:
	.stabs	"",36,0,0,.Lscope8-.LFBB8
	.stabd	78,0,0
	.stabs	"Trio:F(0,1)",36,0,116,Trio
	.stabs	"mano:p(0,30)",160,0,116,8
	.globl	Trio
	.type	Trio, @function
Trio:
	.stabd	46,0,0
	.stabn	68,0,117,.LM114-.LFBB9
.LM114:
.LFBB9:
.LFB8:
	.cfi_startproc
	pushl	%ebp
	.cfi_def_cfa_offset 8
	.cfi_offset 5, -8
	movl	%esp, %ebp
	.cfi_def_cfa_register 5
	subl	$16, %esp
	.stabn	68,0,119,.LM115-.LFBB9
.LM115:
	movl	8(%ebp), %eax
	movl	(%eax), %edx
	movl	8(%ebp), %eax
	addl	$8, %eax
	movl	(%eax), %eax
	cmpl	%eax, %edx
	jne	.L55
	.stabn	68,0,119,.LM116-.LFBB9
.LM116:
	movl	8(%ebp), %eax
	movl	(%eax), %edx
	movl	8(%ebp), %eax
	addl	$16, %eax
	movl	(%eax), %eax
	cmpl	%eax, %edx
	jne	.L55
	.stabn	68,0,119,.LM117-.LFBB9
.LM117:
	movl	$1, %eax
	jmp	.L56
.L55:
	.stabn	68,0,119,.LM118-.LFBB9
.LM118:
	movl	$0, %eax
.L56:
	.stabn	68,0,119,.LM119-.LFBB9
.LM119:
	movl	%eax, -4(%ebp)
	.stabn	68,0,120,.LM120-.LFBB9
.LM120:
	movl	8(%ebp), %eax
	addl	$8, %eax
	movl	(%eax), %edx
	movl	8(%ebp), %eax
	addl	$16, %eax
	movl	(%eax), %eax
	cmpl	%eax, %edx
	jne	.L57
	.stabn	68,0,120,.LM121-.LFBB9
.LM121:
	movl	8(%ebp), %eax
	addl	$8, %eax
	movl	(%eax), %edx
	movl	8(%ebp), %eax
	addl	$24, %eax
	movl	(%eax), %eax
	cmpl	%eax, %edx
	jne	.L57
	.stabn	68,0,120,.LM122-.LFBB9
.LM122:
	movl	$1, %eax
	jmp	.L58
.L57:
	.stabn	68,0,120,.LM123-.LFBB9
.LM123:
	movl	$0, %eax
.L58:
	.stabn	68,0,120,.LM124-.LFBB9
.LM124:
	movl	%eax, -8(%ebp)
	.stabn	68,0,121,.LM125-.LFBB9
.LM125:
	movl	8(%ebp), %eax
	addl	$16, %eax
	movl	(%eax), %edx
	movl	8(%ebp), %eax
	addl	$24, %eax
	movl	(%eax), %eax
	cmpl	%eax, %edx
	jne	.L59
	.stabn	68,0,121,.LM126-.LFBB9
.LM126:
	movl	8(%ebp), %eax
	addl	$16, %eax
	movl	(%eax), %edx
	movl	8(%ebp), %eax
	addl	$32, %eax
	movl	(%eax), %eax
	cmpl	%eax, %edx
	jne	.L59
	.stabn	68,0,121,.LM127-.LFBB9
.LM127:
	movl	$1, %eax
	jmp	.L60
.L59:
	.stabn	68,0,121,.LM128-.LFBB9
.LM128:
	movl	$0, %eax
.L60:
	.stabn	68,0,121,.LM129-.LFBB9
.LM129:
	movl	%eax, -12(%ebp)
	.stabn	68,0,123,.LM130-.LFBB9
.LM130:
	cmpl	$0, -4(%ebp)
	jne	.L61
	.stabn	68,0,123,.LM131-.LFBB9
.LM131:
	cmpl	$0, -8(%ebp)
	jne	.L61
	.stabn	68,0,123,.LM132-.LFBB9
.LM132:
	cmpl	$0, -12(%ebp)
	je	.L62
.L61:
	.stabn	68,0,123,.LM133-.LFBB9
.LM133:
	movl	$1, %eax
	jmp	.L64
.L62:
	.stabn	68,0,123,.LM134-.LFBB9
.LM134:
	movl	$0, %eax
.L64:
	.stabn	68,0,124,.LM135-.LFBB9
.LM135:
	leave
	.cfi_restore 5
	.cfi_def_cfa 4, 4
	ret
	.cfi_endproc
.LFE8:
	.size	Trio, .-Trio
	.stabs	"caso1:(0,1)",128,0,117,-4
	.stabs	"caso2:(0,1)",128,0,117,-8
	.stabs	"caso3:(0,1)",128,0,117,-12
	.stabn	192,0,0,.LFBB9-.LFBB9
	.stabn	224,0,0,.Lscope9-.LFBB9
.Lscope9:
	.stabs	"",36,0,0,.Lscope9-.LFBB9
	.stabd	78,0,0
	.stabs	"Pareja:F(0,1)",36,0,127,Pareja
	.stabs	"mano:p(0,30)",160,0,127,8
	.globl	Pareja
	.type	Pareja, @function
Pareja:
	.stabd	46,0,0
	.stabn	68,0,128,.LM136-.LFBB10
.LM136:
.LFBB10:
.LFB9:
	.cfi_startproc
	pushl	%ebp
	.cfi_def_cfa_offset 8
	.cfi_offset 5, -8
	movl	%esp, %ebp
	.cfi_def_cfa_register 5
	subl	$16, %esp
	.stabn	68,0,130,.LM137-.LFBB10
.LM137:
	movl	8(%ebp), %eax
	movl	(%eax), %edx
	movl	8(%ebp), %eax
	addl	$8, %eax
	movl	(%eax), %eax
	cmpl	%eax, %edx
	sete	%al
	movzbl	%al, %eax
	movl	%eax, -4(%ebp)
	.stabn	68,0,131,.LM138-.LFBB10
.LM138:
	movl	8(%ebp), %eax
	addl	$8, %eax
	movl	(%eax), %edx
	movl	8(%ebp), %eax
	addl	$16, %eax
	movl	(%eax), %eax
	cmpl	%eax, %edx
	sete	%al
	movzbl	%al, %eax
	movl	%eax, -8(%ebp)
	.stabn	68,0,132,.LM139-.LFBB10
.LM139:
	movl	8(%ebp), %eax
	addl	$16, %eax
	movl	(%eax), %edx
	movl	8(%ebp), %eax
	addl	$24, %eax
	movl	(%eax), %eax
	cmpl	%eax, %edx
	sete	%al
	movzbl	%al, %eax
	movl	%eax, -12(%ebp)
	.stabn	68,0,133,.LM140-.LFBB10
.LM140:
	movl	8(%ebp), %eax
	addl	$24, %eax
	movl	(%eax), %edx
	movl	8(%ebp), %eax
	addl	$32, %eax
	movl	(%eax), %eax
	cmpl	%eax, %edx
	sete	%al
	movzbl	%al, %eax
	movl	%eax, -16(%ebp)
	.stabn	68,0,135,.LM141-.LFBB10
.LM141:
	cmpl	$0, -4(%ebp)
	jne	.L66
	.stabn	68,0,135,.LM142-.LFBB10
.LM142:
	cmpl	$0, -8(%ebp)
	jne	.L66
	.stabn	68,0,135,.LM143-.LFBB10
.LM143:
	cmpl	$0, -12(%ebp)
	jne	.L66
	.stabn	68,0,135,.LM144-.LFBB10
.LM144:
	cmpl	$0, -16(%ebp)
	je	.L67
.L66:
	.stabn	68,0,135,.LM145-.LFBB10
.LM145:
	movl	$1, %eax
	jmp	.L69
.L67:
	.stabn	68,0,135,.LM146-.LFBB10
.LM146:
	movl	$0, %eax
.L69:
	.stabn	68,0,136,.LM147-.LFBB10
.LM147:
	leave
	.cfi_restore 5
	.cfi_def_cfa 4, 4
	ret
	.cfi_endproc
.LFE9:
	.size	Pareja, .-Pareja
	.stabs	"caso1:(0,1)",128,0,128,-4
	.stabs	"caso2:(0,1)",128,0,128,-8
	.stabs	"caso3:(0,1)",128,0,128,-12
	.stabs	"caso4:(0,1)",128,0,128,-16
	.stabn	192,0,0,.LFBB10-.LFBB10
	.stabn	224,0,0,.Lscope10-.LFBB10
.Lscope10:
	.stabs	"",36,0,0,.Lscope10-.LFBB10
	.stabd	78,0,0
	.stabs	"DoblePareja:F(0,1)",36,0,138,DoblePareja
	.stabs	"mano:p(0,30)",160,0,138,8
	.globl	DoblePareja
	.type	DoblePareja, @function
DoblePareja:
	.stabd	46,0,0
	.stabn	68,0,139,.LM148-.LFBB11
.LM148:
.LFBB11:
.LFB10:
	.cfi_startproc
	pushl	%ebp
	.cfi_def_cfa_offset 8
	.cfi_offset 5, -8
	movl	%esp, %ebp
	.cfi_def_cfa_register 5
	subl	$16, %esp
	.stabn	68,0,141,.LM149-.LFBB11
.LM149:
	movl	8(%ebp), %eax
	movl	(%eax), %edx
	movl	8(%ebp), %eax
	addl	$8, %eax
	movl	(%eax), %eax
	cmpl	%eax, %edx
	jne	.L71
	.stabn	68,0,141,.LM150-.LFBB11
.LM150:
	movl	8(%ebp), %eax
	addl	$16, %eax
	movl	(%eax), %edx
	movl	8(%ebp), %eax
	addl	$24, %eax
	movl	(%eax), %eax
	cmpl	%eax, %edx
	jne	.L71
	.stabn	68,0,141,.LM151-.LFBB11
.LM151:
	movl	$1, %eax
	jmp	.L72
.L71:
	.stabn	68,0,141,.LM152-.LFBB11
.LM152:
	movl	$0, %eax
.L72:
	.stabn	68,0,141,.LM153-.LFBB11
.LM153:
	movl	%eax, -4(%ebp)
	.stabn	68,0,142,.LM154-.LFBB11
.LM154:
	movl	8(%ebp), %eax
	movl	(%eax), %edx
	movl	8(%ebp), %eax
	addl	$8, %eax
	movl	(%eax), %eax
	cmpl	%eax, %edx
	jne	.L73
	.stabn	68,0,142,.LM155-.LFBB11
.LM155:
	movl	8(%ebp), %eax
	addl	$24, %eax
	movl	(%eax), %edx
	movl	8(%ebp), %eax
	addl	$32, %eax
	movl	(%eax), %eax
	cmpl	%eax, %edx
	jne	.L73
	.stabn	68,0,142,.LM156-.LFBB11
.LM156:
	movl	$1, %eax
	jmp	.L74
.L73:
	.stabn	68,0,142,.LM157-.LFBB11
.LM157:
	movl	$0, %eax
.L74:
	.stabn	68,0,142,.LM158-.LFBB11
.LM158:
	movl	%eax, -8(%ebp)
	.stabn	68,0,143,.LM159-.LFBB11
.LM159:
	movl	8(%ebp), %eax
	addl	$8, %eax
	movl	(%eax), %edx
	movl	8(%ebp), %eax
	addl	$16, %eax
	movl	(%eax), %eax
	cmpl	%eax, %edx
	jne	.L75
	.stabn	68,0,143,.LM160-.LFBB11
.LM160:
	movl	8(%ebp), %eax
	addl	$24, %eax
	movl	(%eax), %edx
	movl	8(%ebp), %eax
	addl	$32, %eax
	movl	(%eax), %eax
	cmpl	%eax, %edx
	jne	.L75
	.stabn	68,0,143,.LM161-.LFBB11
.LM161:
	movl	$1, %eax
	jmp	.L76
.L75:
	.stabn	68,0,143,.LM162-.LFBB11
.LM162:
	movl	$0, %eax
.L76:
	.stabn	68,0,143,.LM163-.LFBB11
.LM163:
	movl	%eax, -12(%ebp)
	.stabn	68,0,145,.LM164-.LFBB11
.LM164:
	cmpl	$0, -4(%ebp)
	jne	.L77
	.stabn	68,0,145,.LM165-.LFBB11
.LM165:
	cmpl	$0, -8(%ebp)
	jne	.L77
	.stabn	68,0,145,.LM166-.LFBB11
.LM166:
	cmpl	$0, -12(%ebp)
	je	.L78
.L77:
	.stabn	68,0,145,.LM167-.LFBB11
.LM167:
	movl	$1, %eax
	jmp	.L80
.L78:
	.stabn	68,0,145,.LM168-.LFBB11
.LM168:
	movl	$0, %eax
.L80:
	.stabn	68,0,146,.LM169-.LFBB11
.LM169:
	leave
	.cfi_restore 5
	.cfi_def_cfa 4, 4
	ret
	.cfi_endproc
.LFE10:
	.size	DoblePareja, .-DoblePareja
	.stabs	"caso1:(0,1)",128,0,139,-4
	.stabs	"caso2:(0,1)",128,0,139,-8
	.stabs	"caso3:(0,1)",128,0,139,-12
	.stabn	192,0,0,.LFBB11-.LFBB11
	.stabn	224,0,0,.Lscope11-.LFBB11
.Lscope11:
	.stabs	"",36,0,0,.Lscope11-.LFBB11
	.stabd	78,0,0
	.section	.rodata
.LC7:
	.string	"EC "
.LC8:
	.string	"PK "
.LC9:
	.string	"FL "
.LC10:
	.string	"CL "
.LC11:
	.string	"ES "
.LC12:
	.string	"TR "
.LC13:
	.string	"PP "
.LC14:
	.string	"PR "
.LC15:
	.string	" . "
	.text
	.stabs	"Test:F(0,25)",36,0,148,Test
	.stabs	"mano:p(0,30)",160,0,148,8
	.globl	Test
	.type	Test, @function
Test:
	.stabd	46,0,0
	.stabn	68,0,148,.LM170-.LFBB12
.LM170:
.LFBB12:
.LFB11:
	.cfi_startproc
	pushl	%ebp
	.cfi_def_cfa_offset 8
	.cfi_offset 5, -8
	movl	%esp, %ebp
	.cfi_def_cfa_register 5
	subl	$8, %esp
	.stabn	68,0,150,.LM171-.LFBB12
.LM171:
	pushl	8(%ebp)
	call	Color
	addl	$4, %esp
	testl	%eax, %eax
	je	.L82
	.stabn	68,0,150,.LM172-.LFBB12
.LM172:
	pushl	8(%ebp)
	call	Escalera
	addl	$4, %esp
	testl	%eax, %eax
	je	.L82
	.stabn	68,0,150,.LM173-.LFBB12
.LM173:
	movl	escaleracolor, %eax
	addl	$1, %eax
	movl	%eax, escaleracolor
	subl	$12, %esp
	pushl	$.LC7
	call	verbose
	addl	$16, %esp
	.stabn	68,0,159,.LM174-.LFBB12
.LM174:
	jmp	.L91
.L82:
	.stabn	68,0,151,.LM175-.LFBB12
.LM175:
	subl	$12, %esp
	pushl	8(%ebp)
	call	Poker
	addl	$16, %esp
	testl	%eax, %eax
	je	.L84
	.stabn	68,0,151,.LM176-.LFBB12
.LM176:
	movl	poker, %eax
	addl	$1, %eax
	movl	%eax, poker
	subl	$12, %esp
	pushl	$.LC8
	call	verbose
	addl	$16, %esp
	.stabn	68,0,159,.LM177-.LFBB12
.LM177:
	jmp	.L91
.L84:
	.stabn	68,0,152,.LM178-.LFBB12
.LM178:
	subl	$12, %esp
	pushl	8(%ebp)
	call	Full
	addl	$16, %esp
	testl	%eax, %eax
	je	.L85
	.stabn	68,0,152,.LM179-.LFBB12
.LM179:
	movl	full, %eax
	addl	$1, %eax
	movl	%eax, full
	subl	$12, %esp
	pushl	$.LC9
	call	verbose
	addl	$16, %esp
	.stabn	68,0,159,.LM180-.LFBB12
.LM180:
	jmp	.L91
.L85:
	.stabn	68,0,153,.LM181-.LFBB12
.LM181:
	subl	$12, %esp
	pushl	8(%ebp)
	call	Color
	addl	$16, %esp
	testl	%eax, %eax
	je	.L86
	.stabn	68,0,153,.LM182-.LFBB12
.LM182:
	movl	color, %eax
	addl	$1, %eax
	movl	%eax, color
	subl	$12, %esp
	pushl	$.LC10
	call	verbose
	addl	$16, %esp
	.stabn	68,0,159,.LM183-.LFBB12
.LM183:
	jmp	.L91
.L86:
	.stabn	68,0,154,.LM184-.LFBB12
.LM184:
	subl	$12, %esp
	pushl	8(%ebp)
	call	Escalera
	addl	$16, %esp
	testl	%eax, %eax
	je	.L87
	.stabn	68,0,154,.LM185-.LFBB12
.LM185:
	movl	escalera, %eax
	addl	$1, %eax
	movl	%eax, escalera
	subl	$12, %esp
	pushl	$.LC11
	call	verbose
	addl	$16, %esp
	.stabn	68,0,159,.LM186-.LFBB12
.LM186:
	jmp	.L91
.L87:
	.stabn	68,0,155,.LM187-.LFBB12
.LM187:
	subl	$12, %esp
	pushl	8(%ebp)
	call	Trio
	addl	$16, %esp
	testl	%eax, %eax
	je	.L88
	.stabn	68,0,155,.LM188-.LFBB12
.LM188:
	movl	trio, %eax
	addl	$1, %eax
	movl	%eax, trio
	subl	$12, %esp
	pushl	$.LC12
	call	verbose
	addl	$16, %esp
	.stabn	68,0,159,.LM189-.LFBB12
.LM189:
	jmp	.L91
.L88:
	.stabn	68,0,156,.LM190-.LFBB12
.LM190:
	subl	$12, %esp
	pushl	8(%ebp)
	call	DoblePareja
	addl	$16, %esp
	testl	%eax, %eax
	je	.L89
	.stabn	68,0,156,.LM191-.LFBB12
.LM191:
	movl	doblepareja, %eax
	addl	$1, %eax
	movl	%eax, doblepareja
	subl	$12, %esp
	pushl	$.LC13
	call	verbose
	addl	$16, %esp
	.stabn	68,0,159,.LM192-.LFBB12
.LM192:
	jmp	.L91
.L89:
	.stabn	68,0,157,.LM193-.LFBB12
.LM193:
	subl	$12, %esp
	pushl	8(%ebp)
	call	Pareja
	addl	$16, %esp
	testl	%eax, %eax
	je	.L90
	.stabn	68,0,157,.LM194-.LFBB12
.LM194:
	movl	pareja, %eax
	addl	$1, %eax
	movl	%eax, pareja
	subl	$12, %esp
	pushl	$.LC14
	call	verbose
	addl	$16, %esp
	.stabn	68,0,159,.LM195-.LFBB12
.LM195:
	jmp	.L91
.L90:
	.stabn	68,0,158,.LM196-.LFBB12
.LM196:
	movl	nada, %eax
	addl	$1, %eax
	movl	%eax, nada
	subl	$12, %esp
	pushl	$.LC15
	call	verbose
	addl	$16, %esp
.L91:
	.stabn	68,0,159,.LM197-.LFBB12
.LM197:
	nop
	leave
	.cfi_restore 5
	.cfi_def_cfa 4, 4
	ret
	.cfi_endproc
.LFE11:
	.size	Test, .-Test
.Lscope12:
	.stabs	"",36,0,0,.Lscope12-.LFBB12
	.stabd	78,0,0
	.stabs	"Repartir:F(0,25)",36,0,162,Repartir
	.stabs	"mano:p(0,30)",160,0,162,8
	.stabs	"i:p(0,1)",160,0,162,12
	.stabs	"j:p(0,1)",160,0,162,16
	.stabs	"k:p(0,1)",160,0,162,20
	.stabs	"m:p(0,1)",160,0,162,24
	.stabs	"n:p(0,1)",160,0,162,28
	.globl	Repartir
	.type	Repartir, @function
Repartir:
	.stabd	46,0,0
	.stabn	68,0,163,.LM198-.LFBB13
.LM198:
.LFBB13:
.LFB12:
	.cfi_startproc
	pushl	%ebp
	.cfi_def_cfa_offset 8
	.cfi_offset 5, -8
	movl	%esp, %ebp
	.cfi_def_cfa_register 5
	.stabn	68,0,164,.LM199-.LFBB13
.LM199:
	movl	12(%ebp), %eax
	movl	baraja(,%eax,8), %edx
	movl	8(%ebp), %eax
	movl	%edx, (%eax)
	.stabn	68,0,165,.LM200-.LFBB13
.LM200:
	movl	8(%ebp), %eax
	leal	8(%eax), %edx
	movl	16(%ebp), %eax
	movl	baraja(,%eax,8), %eax
	movl	%eax, (%edx)
	.stabn	68,0,166,.LM201-.LFBB13
.LM201:
	movl	8(%ebp), %eax
	leal	16(%eax), %edx
	movl	20(%ebp), %eax
	movl	baraja(,%eax,8), %eax
	movl	%eax, (%edx)
	.stabn	68,0,167,.LM202-.LFBB13
.LM202:
	movl	8(%ebp), %eax
	leal	24(%eax), %edx
	movl	24(%ebp), %eax
	movl	baraja(,%eax,8), %eax
	movl	%eax, (%edx)
	.stabn	68,0,168,.LM203-.LFBB13
.LM203:
	movl	8(%ebp), %eax
	leal	32(%eax), %edx
	movl	28(%ebp), %eax
	movl	baraja(,%eax,8), %eax
	movl	%eax, (%edx)
	.stabn	68,0,169,.LM204-.LFBB13
.LM204:
	movl	12(%ebp), %eax
	movl	baraja+4(,%eax,8), %edx
	movl	8(%ebp), %eax
	movl	%edx, 4(%eax)
	.stabn	68,0,170,.LM205-.LFBB13
.LM205:
	movl	8(%ebp), %eax
	leal	8(%eax), %edx
	movl	16(%ebp), %eax
	movl	baraja+4(,%eax,8), %eax
	movl	%eax, 4(%edx)
	.stabn	68,0,171,.LM206-.LFBB13
.LM206:
	movl	8(%ebp), %eax
	leal	16(%eax), %edx
	movl	20(%ebp), %eax
	movl	baraja+4(,%eax,8), %eax
	movl	%eax, 4(%edx)
	.stabn	68,0,172,.LM207-.LFBB13
.LM207:
	movl	8(%ebp), %eax
	leal	24(%eax), %edx
	movl	24(%ebp), %eax
	movl	baraja+4(,%eax,8), %eax
	movl	%eax, 4(%edx)
	.stabn	68,0,173,.LM208-.LFBB13
.LM208:
	movl	8(%ebp), %eax
	leal	32(%eax), %edx
	movl	28(%ebp), %eax
	movl	baraja+4(,%eax,8), %eax
	movl	%eax, 4(%edx)
	.stabn	68,0,174,.LM209-.LFBB13
.LM209:
	nop
	popl	%ebp
	.cfi_restore 5
	.cfi_def_cfa 4, 4
	ret
	.cfi_endproc
.LFE12:
	.size	Repartir, .-Repartir
.Lscope13:
	.stabs	"",36,0,0,.Lscope13-.LFBB13
	.stabd	78,0,0
	.comm	manita,40,32
	.stabs	"manita:G(0,31)=ar(3,30);0;4;(0,26)",32,0,178,0
	.comm	i,4,4
	.stabs	"i:G(0,1)",32,0,179,0
	.comm	j,4,4
	.stabs	"j:G(0,1)",32,0,179,0
	.comm	k,4,4
	.stabs	"k:G(0,1)",32,0,179,0
	.comm	m,4,4
	.stabs	"m:G(0,1)",32,0,179,0
	.comm	n,4,4
	.stabs	"n:G(0,1)",32,0,179,0
	.comm	tot,4,4
	.stabs	"tot:G(0,1)",32,0,180,0
	.section	.rodata
.LC16:
	.string	"  \n"
	.align 4
.LC17:
	.string	"%7d COMBINACIONES:\n - ESCALERA COLOR (%d)\n - POKER (%d)\n - FULL (%d)\n - COLOR (%d)\n - ESCALERA (%d)\n - TRIO (%d)\n - DOBLE PAREJA (%d)\n - PAREJA (%d)\n - NADA (%d) \n"
	.align 4
.LC18:
	.string	"Pierdo algo de tiempo mientras calculo el numero: %d\n"
	.text
	.stabs	"main:F(0,1)",36,0,182,main
	.stabs	"argc:p(0,1)",160,0,182,0
	.stabs	"argv:p(0,32)=*(3,58)",160,0,182,4
	.globl	main
	.type	main, @function
main:
	.stabd	46,0,0
	.stabn	68,0,183,.LM210-.LFBB14
.LM210:
.LFBB14:
.LFB13:
	.cfi_startproc
	leal	4(%esp), %ecx
	.cfi_def_cfa 1, 0
	andl	$-16, %esp
	pushl	-4(%ecx)
	pushl	%ebp
	.cfi_escape 0x10,0x5,0x2,0x75,0
	movl	%esp, %ebp
	pushl	%edi
	pushl	%esi
	pushl	%ebx
	pushl	%ecx
	.cfi_escape 0xf,0x3,0x75,0x70,0x6
	.cfi_escape 0x10,0x7,0x2,0x75,0x7c
	.cfi_escape 0x10,0x6,0x2,0x75,0x78
	.cfi_escape 0x10,0x3,0x2,0x75,0x74
	subl	$24, %esp
	movl	%ecx, %eax
	.stabn	68,0,185,.LM211-.LFBB14
.LM211:
	movl	$0, tot
	.stabn	68,0,187,.LM212-.LFBB14
.LM212:
	cmpl	$2, (%eax)
	jne	.L94
.LBB2:
	.stabn	68,0,187,.LM213-.LFBB14
.LM213:
	movl	4(%eax), %eax
	addl	$4, %eax
	movl	(%eax), %eax
	subl	$12, %esp
	pushl	%eax
	call	atoi
	addl	$16, %esp
	movl	%eax, V
.LBE2:
	jmp	.L95
.L94:
	.stabn	68,0,188,.LM214-.LFBB14
.LM214:
	movl	$0, V
.L95:
	.stabn	68,0,190,.LM215-.LFBB14
.LM215:
	subl	$12, %esp
	pushl	$baraja
	call	Init
	addl	$16, %esp
	.stabn	68,0,191,.LM216-.LFBB14
.LM216:
	movl	$0, i
	jmp	.L96
.L106:
	.stabn	68,0,192,.LM217-.LFBB14
.LM217:
	movl	i, %eax
	addl	$1, %eax
	movl	%eax, j
	jmp	.L97
.L105:
	.stabn	68,0,193,.LM218-.LFBB14
.LM218:
	movl	j, %eax
	addl	$1, %eax
	movl	%eax, k
	jmp	.L98
.L104:
	.stabn	68,0,194,.LM219-.LFBB14
.LM219:
	movl	k, %eax
	addl	$1, %eax
	movl	%eax, m
	jmp	.L99
.L103:
	.stabn	68,0,195,.LM220-.LFBB14
.LM220:
	movl	m, %eax
	addl	$1, %eax
	movl	%eax, n
	jmp	.L100
.L102:
	.stabn	68,0,197,.LM221-.LFBB14
.LM221:
	movl	tot, %ecx
	movl	$1374389535, %edx
	movl	%ecx, %eax
	imull	%edx
	sarl	$3, %edx
	movl	%ecx, %eax
	sarl	$31, %eax
	subl	%eax, %edx
	movl	%edx, %eax
	sall	$2, %eax
	addl	%edx, %eax
	leal	0(,%eax,4), %edx
	addl	%edx, %eax
	subl	%eax, %ecx
	movl	%ecx, %edx
	testl	%edx, %edx
	jne	.L101
	.stabn	68,0,197,.LM222-.LFBB14
.LM222:
	subl	$12, %esp
	pushl	$.LC16
	call	verbose
	addl	$16, %esp
.L101:
	.stabn	68,0,198,.LM223-.LFBB14
.LM223:
	movl	n, %esi
	movl	m, %ebx
	movl	k, %ecx
	movl	j, %edx
	movl	i, %eax
	subl	$8, %esp
	pushl	%esi
	pushl	%ebx
	pushl	%ecx
	pushl	%edx
	pushl	%eax
	pushl	$manita
	call	Repartir
	addl	$32, %esp
	.stabn	68,0,199,.LM224-.LFBB14
.LM224:
	subl	$12, %esp
	pushl	$manita
	call	Ordenar
	addl	$16, %esp
	.stabn	68,0,200,.LM225-.LFBB14
.LM225:
	subl	$12, %esp
	pushl	$manita
	call	Test
	addl	$16, %esp
	.stabn	68,0,201,.LM226-.LFBB14
.LM226:
	movl	tot, %eax
	addl	$1, %eax
	movl	%eax, tot
	.stabn	68,0,195,.LM227-.LFBB14
.LM227:
	movl	n, %eax
	addl	$1, %eax
	movl	%eax, n
.L100:
	.stabn	68,0,195,.LM228-.LFBB14
.LM228:
	movl	n, %eax
	cmpl	$51, %eax
	jle	.L102
	.stabn	68,0,194,.LM229-.LFBB14
.LM229:
	movl	m, %eax
	addl	$1, %eax
	movl	%eax, m
.L99:
	.stabn	68,0,194,.LM230-.LFBB14
.LM230:
	movl	m, %eax
	cmpl	$50, %eax
	jle	.L103
	.stabn	68,0,193,.LM231-.LFBB14
.LM231:
	movl	k, %eax
	addl	$1, %eax
	movl	%eax, k
.L98:
	.stabn	68,0,193,.LM232-.LFBB14
.LM232:
	movl	k, %eax
	cmpl	$49, %eax
	jle	.L104
	.stabn	68,0,192,.LM233-.LFBB14
.LM233:
	movl	j, %eax
	addl	$1, %eax
	movl	%eax, j
.L97:
	.stabn	68,0,192,.LM234-.LFBB14
.LM234:
	movl	j, %eax
	cmpl	$48, %eax
	jle	.L105
	.stabn	68,0,191,.LM235-.LFBB14
.LM235:
	movl	i, %eax
	addl	$1, %eax
	movl	%eax, i
.L96:
	.stabn	68,0,191,.LM236-.LFBB14
.LM236:
	movl	i, %eax
	cmpl	$47, %eax
	jle	.L106
	.stabn	68,0,204,.LM237-.LFBB14
.LM237:
	subl	$12, %esp
	pushl	$10
	call	putchar
	addl	$16, %esp
	.stabn	68,0,206,.LM238-.LFBB14
.LM238:
	movl	nada, %edx
	movl	pareja, %ebx
	movl	doblepareja, %edi
	movl	trio, %eax
	movl	%eax, -28(%ebp)
	movl	escalera, %esi
	movl	%esi, -32(%ebp)
	movl	color, %ecx
	movl	%ecx, -36(%ebp)
	movl	full, %eax
	movl	%eax, -40(%ebp)
	movl	poker, %esi
	movl	escaleracolor, %ecx
	movl	tot, %eax
	subl	$4, %esp
	pushl	%edx
	pushl	%ebx
	pushl	%edi
	pushl	-28(%ebp)
	pushl	-32(%ebp)
	pushl	-36(%ebp)
	pushl	-40(%ebp)
	pushl	%esi
	pushl	%ecx
	pushl	%eax
	pushl	$.LC17
	call	printf
	addl	$48, %esp
	.stabn	68,0,210,.LM239-.LFBB14
.LM239:
	subl	$12, %esp
	pushl	$10002
	call	PierdeTiempo
	addl	$16, %esp
	subl	$8, %esp
	pushl	%eax
	pushl	$.LC18
	call	printf
	addl	$16, %esp
	.stabs	"<built-in>",132,0,0,.Ltext1
.Ltext1:
	.stabn	68,0,0,.LM240-.LFBB14
.LM240:
	movl	$0, %eax
	.stabs	"ProgramaPractica2_Main.c",132,0,0,.Ltext2
.Ltext2:
	.stabn	68,0,211,.LM241-.LFBB14
.LM241:
	leal	-16(%ebp), %esp
	popl	%ecx
	.cfi_restore 1
	.cfi_def_cfa 1, 0
	popl	%ebx
	.cfi_restore 3
	popl	%esi
	.cfi_restore 6
	popl	%edi
	.cfi_restore 7
	popl	%ebp
	.cfi_restore 5
	leal	-4(%ecx), %esp
	.cfi_def_cfa 4, 4
	ret
	.cfi_endproc
.LFE13:
	.size	main, .-main
.Lscope14:
	.stabs	"",36,0,0,.Lscope14-.LFBB14
	.stabd	78,0,0
	.stabs	"",100,0,0,.Letext0
.Letext0:
	.ident	"GCC: (SUSE Linux) 7.4.0"
	.section	.note.GNU-stack,"",@progbits
